; Function Attrs: mustprogress nounwind uwtable
define hidden void @_ZN2cv11bioinspired17MagnoRetinaFilterD0Ev(ptr noundef nonnull align 8 dereferenceable(324) initializes((0, 8)) %0) unnamed_addr #5 align 2 personality ptr @__gxx_personality_v0 {
  store ptr getelementptr inbounds nuw inrange(-16, 16) (i8, ptr @_ZTVN2cv11bioinspired17MagnoRetinaFilterE, i64 16), ptr %0, align 8, !tbaa !3
  %2 = getelementptr inbounds nuw i8, ptr %0, i64 296
  %3 = load ptr, ptr %2, align 8, !tbaa !12
  tail call void @_ZdlPv(ptr noundef %3) #14
  %4 = getelementptr inbounds nuw i8, ptr %0, i64 280
  %5 = load ptr, ptr %4, align 8, !tbaa !12
  tail call void @_ZdlPv(ptr noundef %5) #14
  %6 = getelementptr inbounds nuw i8, ptr %0, i64 264
  %7 = load ptr, ptr %6, align 8, !tbaa !12
  tail call void @_ZdlPv(ptr noundef %7) #14
  %8 = getelementptr inbounds nuw i8, ptr %0, i64 248
  %9 = load ptr, ptr %8, align 8, !tbaa !12
  tail call void @_ZdlPv(ptr noundef %9) #14
  %10 = getelementptr inbounds nuw i8, ptr %0, i64 232
  %11 = load ptr, ptr %10, align 8, !tbaa !12
  tail call void @_ZdlPv(ptr noundef %11) #14
  %12 = getelementptr inbounds nuw i8, ptr %0, i64 216
  %13 = load ptr, ptr %12, align 8, !tbaa !12
  tail call void @_ZdlPv(ptr noundef %13) #14
  %14 = getelementptr inbounds nuw i8, ptr %0, i64 200
  %15 = load ptr, ptr %14, align 8, !tbaa !12
  tail call void @_ZdlPv(ptr noundef %15) #14
  %16 = getelementptr inbounds nuw i8, ptr %0, i64 184
  %17 = load ptr, ptr %16, align 8, !tbaa !12
  tail call void @_ZdlPv(ptr noundef %17) #14
  %18 = getelementptr inbounds nuw i8, ptr %0, i64 8
  tail call void @_ZN2cv11bioinspired17BasicRetinaFilterD2Ev(ptr noundef nonnull align 8 dereferenceable(168) %18) #14
  tail call void @_ZdlPv(ptr noundef nonnull %0) #15
  ret void
}